target datalayout = "e-m:e-p270:32:32-p271:32:32-p272:64:64-i64:64-i128:128-f80:128-n8:16:32:64-S128"
target triple = "x86_64-pc-linux-gnu"

%struct._GList = type { ptr, ptr, ptr }

; Function Attrs: null_pointer_is_valid sspstrong uwtable
define internal void @extcap_free_tokenized_sentences(ptr noundef %0) #0 {
  %2 = alloca ptr, align 8
  store ptr %0, ptr %2, align 8
  %3 = load ptr, ptr %2, align 8
  %4 = icmp eq ptr %3, null
  br i1 %4, label %5, label %6

5:                                                ; preds = %1
  br label %9

6:                                                ; preds = %1
  %7 = load ptr, ptr %2, align 8
  call void @g_list_foreach(ptr noundef %7, ptr noundef @extcap_free_tokenized_sentence, ptr noundef null)
  %8 = load ptr, ptr %2, align 8
  call void @g_list_free(ptr noundef %8)
  br label %9

9:                                                ; preds = %6, %5
  ret void
}

; Function Attrs: null_pointer_is_valid sspstrong uwtable
define hidden ptr @extcap_parse_values(ptr noundef %0) #0 {
  %2 = alloca ptr, align 8
  %3 = alloca ptr, align 8
  %4 = alloca ptr, align 8
  %5 = alloca ptr, align 8
  %6 = alloca ptr, align 8
  %7 = alloca ptr, align 8
  store ptr %0, ptr %2, align 8
  call void @llvm.lifetime.start.p0(i64 8, ptr %3) #10
  store ptr null, ptr %3, align 8
  call void @llvm.lifetime.start.p0(i64 8, ptr %4) #10
  store ptr null, ptr %4, align 8
  call void @llvm.lifetime.start.p0(i64 8, ptr %5) #10
  store ptr null, ptr %5, align 8
  %8 = load ptr, ptr %2, align 8
  %9 = call ptr @extcap_tokenize_sentences(ptr noundef %8)
  store ptr %9, ptr %4, align 8
  %10 = load ptr, ptr %4, align 8
  store ptr %10, ptr %5, align 8
  br label %11

11:                                               ; preds = %33, %1
  %12 = load ptr, ptr %4, align 8
  %13 = icmp ne ptr %12, null
  br i1 %13, label %14, label %35

14:                                               ; preds = %11
  call void @llvm.lifetime.start.p0(i64 8, ptr %6) #10
  store ptr null, ptr %6, align 8
  call void @llvm.lifetime.start.p0(i64 8, ptr %7) #10
  %15 = load ptr, ptr %4, align 8
  %16 = getelementptr inbounds nuw %struct._GList, ptr %15, i32 0, i32 0
  %17 = load ptr, ptr %16, align 8
  store ptr %17, ptr %7, align 8
  %18 = load ptr, ptr %7, align 8
  %19 = call ptr @extcap_parse_value_sentence(ptr noundef %18)
  store ptr %19, ptr %6, align 8
  %20 = icmp ne ptr %19, null
  br i1 %20, label %21, label %25

21:                                               ; preds = %14
  %22 = load ptr, ptr %3, align 8
  %23 = load ptr, ptr %6, align 8
  %24 = call ptr @g_list_append(ptr noundef %22, ptr noundef %23)
  store ptr %24, ptr %3, align 8
  br label %25

25:                                               ; preds = %21, %14
  %26 = load ptr, ptr %4, align 8
  %27 = icmp ne ptr %26, null
  br i1 %27, label %28, label %32

28:                                               ; preds = %25
  %29 = load ptr, ptr %4, align 8
  %30 = getelementptr inbounds nuw %struct._GList, ptr %29, i32 0, i32 1
  %31 = load ptr, ptr %30, align 8
  br label %33

32:                                               ; preds = %25
  br label %33

33:                                               ; preds = %32, %28
  %34 = phi ptr [ %31, %28 ], [ null, %32 ]
  store ptr %34, ptr %4, align 8
  call void @llvm.lifetime.end.p0(i64 8, ptr %7) #10
  call void @llvm.lifetime.end.p0(i64 8, ptr %6) #10
  br label %11, !llvm.loop !9

35:                                               ; preds = %11
  %36 = load ptr, ptr %5, align 8
  call void @extcap_free_tokenized_sentences(ptr noundef %36)
  %37 = load ptr, ptr %3, align 8
  call void @llvm.lifetime.end.p0(i64 8, ptr %5) #10
  call void @llvm.lifetime.end.p0(i64 8, ptr %4) #10
  call void @llvm.lifetime.end.p0(i64 8, ptr %3) #10
  ret ptr %37
}