; Function Attrs: null_pointer_is_valid sspstrong uwtable
define hidden ptr @extcap_parse_values(ptr noundef %0) local_unnamed_addr #0 {
  %2 = tail call fastcc ptr @extcap_tokenize_sentences(ptr noundef %0)
  %.not14 = icmp eq ptr %2, null
  br i1 %.not14, label %extcap_free_tokenized_sentences.exit, label %.lr.ph

.lr.ph:                                           ; preds = %1, %7
  %.016 = phi ptr [ %.1, %7 ], [ null, %1 ]
  %.01115 = phi ptr [ %9, %7 ], [ %2, %1 ]
  %3 = load ptr, ptr %.01115, align 8
  %4 = tail call fastcc ptr @extcap_parse_value_sentence(ptr noundef %3)
  %.not13 = icmp eq ptr %4, null
  br i1 %.not13, label %7, label %5

5:                                                ; preds = %.lr.ph
  %6 = tail call ptr @g_list_append(ptr noundef %.016, ptr noundef nonnull %4)
  br label %7

7:                                                ; preds = %5, %.lr.ph
  %.1 = phi ptr [ %6, %5 ], [ %.016, %.lr.ph ]
  %8 = getelementptr inbounds nuw i8, ptr %.01115, i64 8
  %9 = load ptr, ptr %8, align 8
  %.not = icmp eq ptr %9, null
  br i1 %.not, label %._crit_edge, label %.lr.ph, !llvm.loop !9

._crit_edge:                                      ; preds = %7
  tail call void @g_list_foreach(ptr noundef nonnull %2, ptr noundef nonnull @extcap_free_tokenized_sentence, ptr noundef null)
  tail call void @g_list_free(ptr noundef nonnull %2)
  br label %extcap_free_tokenized_sentences.exit

extcap_free_tokenized_sentences.exit:             ; preds = %1, %._crit_edge
  %.0.lcssa18 = phi ptr [ %.1, %._crit_edge ], [ null, %1 ]
  ret ptr %.0.lcssa18
}